target datalayout = "e-m:e-p270:32:32-p271:32:32-p272:64:64-i64:64-i128:128-f80:128-n8:16:32:64-S128"
target triple = "x86_64-pc-linux-gnu"

%struct.timeval = type { i64, i64 }

; Function Attrs: nounwind uwtable
define hidden i64 @CurrentTimeMicros() #0 {
  %1 = alloca i64, align 8
  %2 = alloca %struct.timeval, align 8
  store i64 0, ptr %1, align 8
  %3 = call i32 @gettimeofday(ptr noundef %2, ptr noundef null) #6
  %4 = icmp ne i32 %3, -1
  br i1 %4, label %5, label %13

5:                                                ; preds = %0
  %6 = getelementptr inbounds %struct.timeval, ptr %2, i32 0, i32 0
  %7 = load i64, ptr %6, align 8
  %8 = mul nsw i64 1000000, %7
  store i64 %8, ptr %1, align 8
  %9 = getelementptr inbounds %struct.timeval, ptr %2, i32 0, i32 1
  %10 = load i64, ptr %9, align 8
  %11 = load i64, ptr %1, align 8
  %12 = add nsw i64 %11, %10
  store i64 %12, ptr %1, align 8
  br label %13

13:                                               ; preds = %5, %0
  %14 = load i64, ptr %1, align 8
  ret i64 %14
}