; Function Attrs: nofree nounwind uwtable
define hidden i64 @CurrentTimeMicros() local_unnamed_addr #7 {
  %1 = alloca %struct.timeval, align 8
  %2 = call i32 @gettimeofday(ptr noundef nonnull %1, ptr noundef null) #14
  %.not = icmp eq i32 %2, -1
  br i1 %.not, label %9, label %3

3:                                                ; preds = %0
  %4 = load i64, ptr %1, align 8
  %5 = mul nsw i64 %4, 1000000
  %6 = getelementptr inbounds i8, ptr %1, i64 8
  %7 = load i64, ptr %6, align 8
  %8 = add nsw i64 %5, %7
  br label %9

9:                                                ; preds = %3, %0
  %.0 = phi i64 [ %8, %3 ], [ 0, %0 ]
  ret i64 %.0
}